; Function Attrs: nounwind uwtable
define internal signext range(i8 -1, 2) i8 @image_cache_compare_cb(ptr noundef readonly captures(none) %0, ptr noundef readonly captures(none) %1) #0 {
  %3 = getelementptr inbounds nuw i8, ptr %0, i64 8
  %4 = load ptr, ptr %3, align 8, !tbaa !34
  %5 = getelementptr inbounds nuw i8, ptr %0, i64 16
  %6 = load i32, ptr %5, align 8, !tbaa !39
  %7 = getelementptr inbounds nuw i8, ptr %1, i64 8
  %8 = load ptr, ptr %7, align 8, !tbaa !34
  %9 = getelementptr inbounds nuw i8, ptr %1, i64 16
  %10 = load i32, ptr %9, align 8, !tbaa !39
  %11 = icmp eq i32 %6, %10
  br i1 %11, label %12, label %21

12:                                               ; preds = %2
  switch i32 %6, label %20 [
    i32 1, label %13
    i32 0, label %16
  ]

13:                                               ; preds = %12
  %14 = tail call i32 @lv_strcmp(ptr noundef %4, ptr noundef %8) #4
  %.not21.not.i = icmp eq i32 %14, 0
  %.inv.i = icmp slt i32 %14, 1
  %15 = select i1 %.inv.i, i8 -1, i8 1
  br i1 %.not21.not.i, label %20, label %image_cache_common_compare.exit

16:                                               ; preds = %12
  %.not.i = icmp eq ptr %4, %8
  br i1 %.not.i, label %20, label %17

17:                                               ; preds = %16
  %18 = icmp ugt ptr %4, %8
  %19 = select i1 %18, i8 1, i8 -1
  br label %image_cache_common_compare.exit

20:                                               ; preds = %16, %13, %12
  br label %image_cache_common_compare.exit

21:                                               ; preds = %2
  %22 = icmp ugt i32 %6, %10
  %23 = select i1 %22, i8 1, i8 -1
  br label %image_cache_common_compare.exit

image_cache_common_compare.exit:                  ; preds = %13, %17, %20, %21
  %.1.i = phi i8 [ %15, %13 ], [ 0, %20 ], [ %19, %17 ], [ %23, %21 ]
  ret i8 %.1.i
}